; Function Attrs: mustprogress norecurse uwtable
define internal fastcc noundef zeroext i1 @_ZL8_IsCloseIfEbRKN32pxrInternal_v0_24__pxrReserved__7VtValueES3_T_(ptr noundef nonnull align 8 dereferenceable(16) %0, ptr noundef nonnull align 8 dereferenceable(16) %1) unnamed_addr #6 personality ptr @__gxx_personality_v0 {
  %3 = getelementptr inbounds nuw i8, ptr %0, i64 8
  %4 = load ptr, ptr %3, align 8
  %5 = ptrtoint ptr %4 to i64
  %.not.i.i = icmp eq ptr %4, null
  br i1 %.not.i.i, label %_ZNK32pxrInternal_v0_24__pxrReserved__7VtValue9IsHoldingIfEEbv.exit.thread.i, label %6

6:                                                ; preds = %2
  %7 = and i64 %5, -8
  %8 = inttoptr i64 %7 to ptr
  %9 = getelementptr inbounds nuw i8, ptr %8, i64 16
  %10 = load i32, ptr %9, align 8
  %11 = icmp eq i32 %10, 10
  br i1 %11, label %_ZNK32pxrInternal_v0_24__pxrReserved__7VtValue9IsHoldingIfEEbv.exit.thread3.i, label %12

12:                                               ; preds = %6
  %13 = and i64 %5, 4
  %.not.i.i.i = icmp eq i64 %13, 0
  br i1 %.not.i.i.i, label %_ZNK32pxrInternal_v0_24__pxrReserved__7VtValue9IsHoldingIfEEbv.exit.thread.i, label %_ZNK32pxrInternal_v0_24__pxrReserved__7VtValue9IsHoldingIfEEbv.exit.i

_ZNK32pxrInternal_v0_24__pxrReserved__7VtValue9IsHoldingIfEEbv.exit.i: ; preds = %12
  %14 = tail call noundef zeroext i1 @_ZNK32pxrInternal_v0_24__pxrReserved__7VtValue11_TypeIsImplERKSt9type_info(ptr noundef nonnull align 8 dereferenceable(16) %0, ptr noundef nonnull align 8 dereferenceable(16) @_ZTIf)
  br i1 %14, label %_ZNK32pxrInternal_v0_24__pxrReserved__7VtValue9IsHoldingIfEEbv.exit._ZNK32pxrInternal_v0_24__pxrReserved__7VtValue9IsHoldingIfEEbv.exit.thread3_crit_edge.i, label %_ZNK32pxrInternal_v0_24__pxrReserved__7VtValue9IsHoldingIfEEbv.exit.thread.i

_ZNK32pxrInternal_v0_24__pxrReserved__7VtValue9IsHoldingIfEEbv.exit._ZNK32pxrInternal_v0_24__pxrReserved__7VtValue9IsHoldingIfEEbv.exit.thread3_crit_edge.i: ; preds = %_ZNK32pxrInternal_v0_24__pxrReserved__7VtValue9IsHoldingIfEEbv.exit.i
  %.pre.i = load ptr, ptr %3, align 8
  %.pre4.i = ptrtoint ptr %.pre.i to i64
  br label %_ZNK32pxrInternal_v0_24__pxrReserved__7VtValue9IsHoldingIfEEbv.exit.thread3.i

_ZNK32pxrInternal_v0_24__pxrReserved__7VtValue9IsHoldingIfEEbv.exit.thread.i: ; preds = %_ZNK32pxrInternal_v0_24__pxrReserved__7VtValue9IsHoldingIfEEbv.exit.i, %12, %2
  %15 = tail call noundef ptr @_ZNK32pxrInternal_v0_24__pxrReserved__7VtValue8_FailGetEPFNS_21Vt_DefaultValueHolderEvERKSt9type_info(ptr noundef nonnull align 8 dereferenceable(16) %0, ptr noundef nonnull @_ZN32pxrInternal_v0_24__pxrReserved__22Vt_DefaultValueFactoryIfE6InvokeEv, ptr noundef nonnull align 8 dereferenceable(16) @_ZTIf)
  br label %_ZNKR32pxrInternal_v0_24__pxrReserved__7VtValue3GetIfEERKT_v.exit

_ZNK32pxrInternal_v0_24__pxrReserved__7VtValue9IsHoldingIfEEbv.exit.thread3.i: ; preds = %_ZNK32pxrInternal_v0_24__pxrReserved__7VtValue9IsHoldingIfEEbv.exit._ZNK32pxrInternal_v0_24__pxrReserved__7VtValue9IsHoldingIfEEbv.exit.thread3_crit_edge.i, %6
  %.pre-phi.i = phi i64 [ %.pre4.i, %_ZNK32pxrInternal_v0_24__pxrReserved__7VtValue9IsHoldingIfEEbv.exit._ZNK32pxrInternal_v0_24__pxrReserved__7VtValue9IsHoldingIfEEbv.exit.thread3_crit_edge.i ], [ %5, %6 ]
  %16 = and i64 %.pre-phi.i, 4
  %.not.i2.i = icmp eq i64 %16, 0
  br i1 %.not.i2.i, label %_ZNKR32pxrInternal_v0_24__pxrReserved__7VtValue3GetIfEERKT_v.exit, label %17

17:                                               ; preds = %_ZNK32pxrInternal_v0_24__pxrReserved__7VtValue9IsHoldingIfEEbv.exit.thread3.i
  %18 = and i64 %.pre-phi.i, -8
  %19 = inttoptr i64 %18 to ptr
  %20 = getelementptr inbounds nuw i8, ptr %19, i64 168
  %21 = load ptr, ptr %20, align 8
  %22 = tail call noundef ptr %21(ptr noundef nonnull align 8 dereferenceable(16) %0)
  br label %_ZNKR32pxrInternal_v0_24__pxrReserved__7VtValue3GetIfEERKT_v.exit

_ZNKR32pxrInternal_v0_24__pxrReserved__7VtValue3GetIfEERKT_v.exit: ; preds = %_ZNK32pxrInternal_v0_24__pxrReserved__7VtValue9IsHoldingIfEEbv.exit.thread.i, %_ZNK32pxrInternal_v0_24__pxrReserved__7VtValue9IsHoldingIfEEbv.exit.thread3.i, %17
  %.0.i = phi ptr [ %15, %_ZNK32pxrInternal_v0_24__pxrReserved__7VtValue9IsHoldingIfEEbv.exit.thread.i ], [ %22, %17 ], [ %0, %_ZNK32pxrInternal_v0_24__pxrReserved__7VtValue9IsHoldingIfEEbv.exit.thread3.i ]
  %23 = load float, ptr %.0.i, align 4
  %24 = getelementptr inbounds nuw i8, ptr %1, i64 8
  %25 = load ptr, ptr %24, align 8
  %26 = ptrtoint ptr %25 to i64
  %.not.i.i3 = icmp eq ptr %25, null
  br i1 %.not.i.i3, label %_ZNK32pxrInternal_v0_24__pxrReserved__7VtValue9IsHoldingIfEEbv.exit.thread.i6, label %27

27:                                               ; preds = %_ZNKR32pxrInternal_v0_24__pxrReserved__7VtValue3GetIfEERKT_v.exit
  %28 = and i64 %26, -8
  %29 = inttoptr i64 %28 to ptr
  %30 = getelementptr inbounds nuw i8, ptr %29, i64 16
  %31 = load i32, ptr %30, align 8
  %32 = icmp eq i32 %31, 10
  br i1 %32, label %_ZNK32pxrInternal_v0_24__pxrReserved__7VtValue9IsHoldingIfEEbv.exit.thread3.i11, label %33

33:                                               ; preds = %27
  %34 = and i64 %26, 4
  %.not.i.i.i4 = icmp eq i64 %34, 0
  br i1 %.not.i.i.i4, label %_ZNK32pxrInternal_v0_24__pxrReserved__7VtValue9IsHoldingIfEEbv.exit.thread.i6, label %_ZNK32pxrInternal_v0_24__pxrReserved__7VtValue9IsHoldingIfEEbv.exit.i5

_ZNK32pxrInternal_v0_24__pxrReserved__7VtValue9IsHoldingIfEEbv.exit.i5: ; preds = %33
  %35 = tail call noundef zeroext i1 @_ZNK32pxrInternal_v0_24__pxrReserved__7VtValue11_TypeIsImplERKSt9type_info(ptr noundef nonnull align 8 dereferenceable(16) %1, ptr noundef nonnull align 8 dereferenceable(16) @_ZTIf)
  br i1 %35, label %_ZNK32pxrInternal_v0_24__pxrReserved__7VtValue9IsHoldingIfEEbv.exit._ZNK32pxrInternal_v0_24__pxrReserved__7VtValue9IsHoldingIfEEbv.exit.thread3_crit_edge.i8, label %_ZNK32pxrInternal_v0_24__pxrReserved__7VtValue9IsHoldingIfEEbv.exit.thread.i6

_ZNK32pxrInternal_v0_24__pxrReserved__7VtValue9IsHoldingIfEEbv.exit._ZNK32pxrInternal_v0_24__pxrReserved__7VtValue9IsHoldingIfEEbv.exit.thread3_crit_edge.i8: ; preds = %_ZNK32pxrInternal_v0_24__pxrReserved__7VtValue9IsHoldingIfEEbv.exit.i5
  %.pre.i9 = load ptr, ptr %24, align 8
  %.pre4.i10 = ptrtoint ptr %.pre.i9 to i64
  br label %_ZNK32pxrInternal_v0_24__pxrReserved__7VtValue9IsHoldingIfEEbv.exit.thread3.i11

_ZNK32pxrInternal_v0_24__pxrReserved__7VtValue9IsHoldingIfEEbv.exit.thread.i6: ; preds = %_ZNK32pxrInternal_v0_24__pxrReserved__7VtValue9IsHoldingIfEEbv.exit.i5, %33, %_ZNKR32pxrInternal_v0_24__pxrReserved__7VtValue3GetIfEERKT_v.exit
  %36 = tail call noundef ptr @_ZNK32pxrInternal_v0_24__pxrReserved__7VtValue8_FailGetEPFNS_21Vt_DefaultValueHolderEvERKSt9type_info(ptr noundef nonnull align 8 dereferenceable(16) %1, ptr noundef nonnull @_ZN32pxrInternal_v0_24__pxrReserved__22Vt_DefaultValueFactoryIfE6InvokeEv, ptr noundef nonnull align 8 dereferenceable(16) @_ZTIf)
  br label %_ZNKR32pxrInternal_v0_24__pxrReserved__7VtValue3GetIfEERKT_v.exit14

_ZNK32pxrInternal_v0_24__pxrReserved__7VtValue9IsHoldingIfEEbv.exit.thread3.i11: ; preds = %_ZNK32pxrInternal_v0_24__pxrReserved__7VtValue9IsHoldingIfEEbv.exit._ZNK32pxrInternal_v0_24__pxrReserved__7VtValue9IsHoldingIfEEbv.exit.thread3_crit_edge.i8, %27
  %.pre-phi.i12 = phi i64 [ %.pre4.i10, %_ZNK32pxrInternal_v0_24__pxrReserved__7VtValue9IsHoldingIfEEbv.exit._ZNK32pxrInternal_v0_24__pxrReserved__7VtValue9IsHoldingIfEEbv.exit.thread3_crit_edge.i8 ], [ %26, %27 ]
  %37 = and i64 %.pre-phi.i12, 4
  %.not.i2.i13 = icmp eq i64 %37, 0
  br i1 %.not.i2.i13, label %_ZNKR32pxrInternal_v0_24__pxrReserved__7VtValue3GetIfEERKT_v.exit14, label %38

38:                                               ; preds = %_ZNK32pxrInternal_v0_24__pxrReserved__7VtValue9IsHoldingIfEEbv.exit.thread3.i11
  %39 = and i64 %.pre-phi.i12, -8
  %40 = inttoptr i64 %39 to ptr
  %41 = getelementptr inbounds nuw i8, ptr %40, i64 168
  %42 = load ptr, ptr %41, align 8
  %43 = tail call noundef ptr %42(ptr noundef nonnull align 8 dereferenceable(16) %1)
  br label %_ZNKR32pxrInternal_v0_24__pxrReserved__7VtValue3GetIfEERKT_v.exit14

_ZNKR32pxrInternal_v0_24__pxrReserved__7VtValue3GetIfEERKT_v.exit14: ; preds = %_ZNK32pxrInternal_v0_24__pxrReserved__7VtValue9IsHoldingIfEEbv.exit.thread.i6, %_ZNK32pxrInternal_v0_24__pxrReserved__7VtValue9IsHoldingIfEEbv.exit.thread3.i11, %38
  %.0.i7 = phi ptr [ %36, %_ZNK32pxrInternal_v0_24__pxrReserved__7VtValue9IsHoldingIfEEbv.exit.thread.i6 ], [ %43, %38 ], [ %1, %_ZNK32pxrInternal_v0_24__pxrReserved__7VtValue9IsHoldingIfEEbv.exit.thread3.i11 ]
  %44 = load float, ptr %.0.i7, align 4
  %45 = fsub float %23, %44
  %46 = tail call noundef float @llvm.fabs.f32(float %45)
  %47 = fcmp olt float %46, 0x3FC3333340000000
  ret i1 %47
}